target datalayout = "e-m:e-p270:32:32-p271:32:32-p272:64:64-i64:64-i128:128-f80:128-n8:16:32:64-S128"
target triple = "x86_64-pc-linux-gnu"

%union.pthread_mutex_t = type { %struct.__pthread_mutex_s }
%struct.__pthread_mutex_s = type { i32, i32, i32, i32, i32, i16, i16, %struct.__pthread_internal_list }
%struct.__pthread_internal_list = type { ptr, ptr }
%struct.WOLFSSL_SESSION = type { i32, i32, %struct.wolfSSL_RefWithMutex, [32 x i8], i8, ptr, i8, i32, i32, [32 x i8], i8, [48 x i8], i16, i8, i8, i16, [20 x i8], i16, i8 }
%struct.wolfSSL_RefWithMutex = type { %union.pthread_mutex_t, i32 }

; Function Attrs: inlinehint nounwind uwtable
define internal void @ForceZero(ptr noundef %0, i32 noundef %1) #4 {
  %3 = alloca ptr, align 8
  %4 = alloca i32, align 4
  %5 = alloca ptr, align 8
  %6 = alloca ptr, align 8
  %7 = alloca i32, align 4
  store ptr %0, ptr %3, align 8, !tbaa !3
  store i32 %1, ptr %4, align 4, !tbaa !7
  call void @llvm.lifetime.start.p0(i64 8, ptr %5) #9
  %8 = load ptr, ptr %3, align 8, !tbaa !3
  store ptr %8, ptr %5, align 8, !tbaa !21
  call void @llvm.lifetime.start.p0(i64 8, ptr %6) #9
  call void @llvm.lifetime.start.p0(i64 4, ptr %7) #9
  %9 = load ptr, ptr %5, align 8, !tbaa !21
  %10 = ptrtoint ptr %9 to i64
  %11 = and i64 %10, 7
  %12 = sub i64 8, %11
  %13 = and i64 %12, 7
  %14 = trunc i64 %13 to i32
  store i32 %14, ptr %7, align 4, !tbaa !7
  %15 = load i32, ptr %4, align 4, !tbaa !7
  %16 = load i32, ptr %7, align 4, !tbaa !7
  %17 = icmp ult i32 %15, %16
  br i1 %17, label %18, label %20

18:                                               ; preds = %2
  %19 = load i32, ptr %4, align 4, !tbaa !7
  store i32 %19, ptr %7, align 4, !tbaa !7
  br label %20

20:                                               ; preds = %18, %2
  %21 = load i32, ptr %7, align 4, !tbaa !7
  %22 = load i32, ptr %4, align 4, !tbaa !7
  %23 = sub i32 %22, %21
  store i32 %23, ptr %4, align 4, !tbaa !7
  br label %24

24:                                               ; preds = %28, %20
  %25 = load i32, ptr %7, align 4, !tbaa !7
  %26 = add i32 %25, -1
  store i32 %26, ptr %7, align 4, !tbaa !7
  %27 = icmp ne i32 %25, 0
  br i1 %27, label %28, label %31

28:                                               ; preds = %24
  %29 = load ptr, ptr %5, align 8, !tbaa !21
  %30 = getelementptr inbounds nuw i8, ptr %29, i32 1
  store ptr %30, ptr %5, align 8, !tbaa !21
  store volatile i8 0, ptr %29, align 1, !tbaa !20
  br label %24, !llvm.loop !57

31:                                               ; preds = %24
  %32 = load ptr, ptr %5, align 8, !tbaa !21
  store ptr %32, ptr %6, align 8, !tbaa !51
  br label %33

33:                                               ; preds = %40, %31
  %34 = load i32, ptr %4, align 4, !tbaa !7
  %35 = zext i32 %34 to i64
  %36 = icmp uge i64 %35, 8
  br i1 %36, label %37, label %43

37:                                               ; preds = %33
  %38 = load ptr, ptr %6, align 8, !tbaa !51
  %39 = getelementptr inbounds nuw i64, ptr %38, i32 1
  store ptr %39, ptr %6, align 8, !tbaa !51
  store volatile i64 0, ptr %38, align 8, !tbaa !22
  br label %40

40:                                               ; preds = %37
  %41 = load i32, ptr %4, align 4, !tbaa !7
  %42 = sub i32 %41, 8
  store i32 %42, ptr %4, align 4, !tbaa !7
  br label %33, !llvm.loop !59

43:                                               ; preds = %33
  %44 = load ptr, ptr %6, align 8, !tbaa !51
  store ptr %44, ptr %5, align 8, !tbaa !21
  br label %45

45:                                               ; preds = %49, %43
  %46 = load i32, ptr %4, align 4, !tbaa !7
  %47 = add i32 %46, -1
  store i32 %47, ptr %4, align 4, !tbaa !7
  %48 = icmp ne i32 %46, 0
  br i1 %48, label %49, label %52

49:                                               ; preds = %45
  %50 = load ptr, ptr %5, align 8, !tbaa !21
  %51 = getelementptr inbounds nuw i8, ptr %50, i32 1
  store ptr %51, ptr %5, align 8, !tbaa !21
  store volatile i8 0, ptr %50, align 1, !tbaa !20
  br label %45, !llvm.loop !60

52:                                               ; preds = %45
  call void @llvm.lifetime.end.p0(i64 4, ptr %7) #9
  call void @llvm.lifetime.end.p0(i64 8, ptr %6) #9
  call void @llvm.lifetime.end.p0(i64 8, ptr %5) #9
  ret void
}

; Function Attrs: nounwind uwtable
define void @wolfSSL_FreeSession(ptr noundef %0, ptr noundef %1) #0 {
  %3 = alloca ptr, align 8
  %4 = alloca ptr, align 8
  %5 = alloca i32, align 4
  %6 = alloca i32, align 4
  %7 = alloca i32, align 4
  %8 = alloca ptr, align 8
  store ptr %0, ptr %3, align 8, !tbaa !24
  store ptr %1, ptr %4, align 8, !tbaa !53
  %9 = load ptr, ptr %4, align 8, !tbaa !53
  %10 = call ptr @ClientSessionToSession(ptr noundef %9)
  store ptr %10, ptr %4, align 8, !tbaa !53
  %11 = load ptr, ptr %4, align 8, !tbaa !53
  %12 = icmp eq ptr %11, null
  br i1 %12, label %13, label %14

13:                                               ; preds = %2
  br label %56

14:                                               ; preds = %2
  br label %15

15:                                               ; preds = %14
  br label %16

16:                                               ; preds = %15
  %17 = load ptr, ptr %4, align 8, !tbaa !53
  %18 = getelementptr inbounds nuw %struct.WOLFSSL_SESSION, ptr %17, i32 0, i32 2
  %19 = getelementptr inbounds nuw %struct.wolfSSL_RefWithMutex, ptr %18, i32 0, i32 1
  %20 = load i32, ptr %19, align 8, !tbaa !131
  %21 = icmp sgt i32 %20, 0
  br i1 %21, label %22, label %34

22:                                               ; preds = %16
  call void @llvm.lifetime.start.p0(i64 4, ptr %5) #9
  call void @llvm.lifetime.start.p0(i64 4, ptr %6) #9
  %23 = load ptr, ptr %4, align 8, !tbaa !53
  %24 = getelementptr inbounds nuw %struct.WOLFSSL_SESSION, ptr %23, i32 0, i32 2
  call void @wolfSSL_RefWithMutexDec(ptr noundef %24, ptr noundef %6, ptr noundef %5)
  %25 = load i32, ptr %6, align 4, !tbaa !7
  %26 = icmp ne i32 %25, 0
  br i1 %26, label %28, label %27

27:                                               ; preds = %22
  store i32 1, ptr %7, align 4
  br label %31

28:                                               ; preds = %22
  %29 = load ptr, ptr %4, align 8, !tbaa !53
  %30 = getelementptr inbounds nuw %struct.WOLFSSL_SESSION, ptr %29, i32 0, i32 2
  call void @wolfSSL_RefWithMutexFree(ptr noundef %30)
  store i32 0, ptr %7, align 4
  br label %31

31:                                               ; preds = %28, %27
  call void @llvm.lifetime.end.p0(i64 4, ptr %6) #9
  call void @llvm.lifetime.end.p0(i64 4, ptr %5) #9
  %32 = load i32, ptr %7, align 4
  switch i32 %32, label %57 [
    i32 0, label %33
    i32 1, label %56
  ]

33:                                               ; preds = %31
  br label %34

34:                                               ; preds = %33, %16
  br label %35

35:                                               ; preds = %34
  br label %36

36:                                               ; preds = %35
  %37 = load ptr, ptr %4, align 8, !tbaa !53
  %38 = getelementptr inbounds nuw %struct.WOLFSSL_SESSION, ptr %37, i32 0, i32 11
  %39 = getelementptr inbounds [48 x i8], ptr %38, i64 0, i64 0
  call void @ForceZero(ptr noundef %39, i32 noundef 48)
  %40 = load ptr, ptr %4, align 8, !tbaa !53
  %41 = getelementptr inbounds nuw %struct.WOLFSSL_SESSION, ptr %40, i32 0, i32 9
  %42 = getelementptr inbounds [32 x i8], ptr %41, i64 0, i64 0
  call void @ForceZero(ptr noundef %42, i32 noundef 32)
  %43 = load ptr, ptr %4, align 8, !tbaa !53
  %44 = getelementptr inbounds nuw %struct.WOLFSSL_SESSION, ptr %43, i32 0, i32 0
  %45 = load i32, ptr %44, align 8, !tbaa !103
  %46 = icmp eq i32 %45, 3
  br i1 %46, label %47, label %56

47:                                               ; preds = %36
  br label %48

48:                                               ; preds = %47
  call void @llvm.lifetime.start.p0(i64 8, ptr %8) #9
  %49 = load ptr, ptr %4, align 8, !tbaa !53
  store ptr %49, ptr %8, align 8, !tbaa !3
  %50 = load ptr, ptr %8, align 8, !tbaa !3
  %51 = icmp ne ptr %50, null
  br i1 %51, label %52, label %54

52:                                               ; preds = %48
  %53 = load ptr, ptr %8, align 8, !tbaa !3
  call void @wolfSSL_Free(ptr noundef %53)
  br label %54

54:                                               ; preds = %52, %48
  call void @llvm.lifetime.end.p0(i64 8, ptr %8) #9
  br label %55

55:                                               ; preds = %54
  br label %56

56:                                               ; preds = %13, %31, %55, %36
  ret void

57:                                               ; preds = %31
  unreachable
}