; Function Attrs: nounwind uwtable
define void @wolfSSL_FreeSession(ptr readnone captures(none) %0, ptr noundef %1) local_unnamed_addr #0 {
  %3 = alloca i32, align 4
  %4 = alloca i32, align 4
  %5 = tail call ptr @ClientSessionToSession(ptr noundef %1)
  %6 = icmp eq ptr %5, null
  br i1 %6, label %45, label %7

7:                                                ; preds = %2
  %8 = getelementptr inbounds nuw i8, ptr %5, i64 8
  %9 = getelementptr inbounds nuw i8, ptr %5, i64 48
  %10 = load i32, ptr %9, align 8, !tbaa !112
  %11 = icmp sgt i32 %10, 0
  br i1 %11, label %12, label %15

12:                                               ; preds = %7
  call void @llvm.lifetime.start.p0(i64 4, ptr nonnull %3) #22
  call void @llvm.lifetime.start.p0(i64 4, ptr nonnull %4) #22
  call void @wolfSSL_RefWithMutexDec(ptr noundef nonnull %8, ptr noundef nonnull %4, ptr noundef nonnull %3) #22
  %13 = load i32, ptr %4, align 4, !tbaa !3
  %.not = icmp eq i32 %13, 0
  br i1 %.not, label %14, label %.thread

.thread:                                          ; preds = %12
  call void @wolfSSL_RefWithMutexFree(ptr noundef nonnull %8) #22
  call void @llvm.lifetime.end.p0(i64 4, ptr nonnull %4) #22
  call void @llvm.lifetime.end.p0(i64 4, ptr nonnull %3) #22
  br label %15

14:                                               ; preds = %12
  call void @llvm.lifetime.end.p0(i64 4, ptr nonnull %4) #22
  call void @llvm.lifetime.end.p0(i64 4, ptr nonnull %3) #22
  br label %45

15:                                               ; preds = %.thread, %7
  %16 = getelementptr inbounds nuw i8, ptr %5, i64 149
  %17 = ptrtoint ptr %16 to i64
  %18 = trunc i64 %17 to i32
  %19 = sub i32 0, %18
  %20 = and i32 %19, 7
  %21 = sub nuw nsw i32 48, %20
  %.not24.i = icmp eq i32 %20, 0
  br i1 %.not24.i, label %.lr.ph29.i.preheader, label %.lr.ph.i

.lr.ph29.i.preheader:                             ; preds = %.lr.ph.i, %15
  %.01528.i.ph = phi ptr [ %16, %15 ], [ %23, %.lr.ph.i ]
  br label %.lr.ph29.i

.lr.ph.i:                                         ; preds = %15, %.lr.ph.i
  %.126.i = phi i32 [ %22, %.lr.ph.i ], [ %20, %15 ]
  %.01625.i = phi ptr [ %23, %.lr.ph.i ], [ %16, %15 ]
  %22 = add nsw i32 %.126.i, -1
  %23 = getelementptr inbounds nuw i8, ptr %.01625.i, i64 1
  store volatile i8 0, ptr %.01625.i, align 1, !tbaa !43
  %.not.i = icmp eq i32 %22, 0
  br i1 %.not.i, label %.lr.ph29.i.preheader, label %.lr.ph.i, !llvm.loop !44

.preheader.i:                                     ; preds = %.lr.ph29.i
  %.not2232.i = icmp eq i32 %25, 0
  br i1 %.not2232.i, label %ForceZero.exit, label %.lr.ph35.i

.lr.ph29.i:                                       ; preds = %.lr.ph29.i.preheader, %.lr.ph29.i
  %.01528.i = phi ptr [ %24, %.lr.ph29.i ], [ %.01528.i.ph, %.lr.ph29.i.preheader ]
  %.01827.i = phi i32 [ %25, %.lr.ph29.i ], [ %21, %.lr.ph29.i.preheader ]
  %24 = getelementptr inbounds nuw i8, ptr %.01528.i, i64 8
  store volatile i64 0, ptr %.01528.i, align 8, !tbaa !27
  %25 = add nsw i32 %.01827.i, -8
  %26 = icmp ugt i32 %25, 7
  br i1 %26, label %.lr.ph29.i, label %.preheader.i, !llvm.loop !45

.lr.ph35.i:                                       ; preds = %.preheader.i, %.lr.ph35.i
  %.11734.i = phi ptr [ %28, %.lr.ph35.i ], [ %24, %.preheader.i ]
  %.11933.i = phi i32 [ %27, %.lr.ph35.i ], [ %25, %.preheader.i ]
  %27 = add i32 %.11933.i, -1
  %28 = getelementptr inbounds nuw i8, ptr %.11734.i, i64 1
  store volatile i8 0, ptr %.11734.i, align 1, !tbaa !43
  %.not22.i = icmp eq i32 %27, 0
  br i1 %.not22.i, label %ForceZero.exit, label %.lr.ph35.i, !llvm.loop !46

ForceZero.exit:                                   ; preds = %.lr.ph35.i, %.preheader.i
  %29 = getelementptr inbounds nuw i8, ptr %5, i64 116
  %30 = ptrtoint ptr %29 to i64
  %31 = trunc i64 %30 to i32
  %32 = sub i32 0, %31
  %33 = and i32 %32, 7
  %34 = sub nuw nsw i32 32, %33
  %.not24.i12 = icmp eq i32 %33, 0
  br i1 %.not24.i12, label %.lr.ph29.i27.preheader, label %.lr.ph.i13

.lr.ph29.i27.preheader:                           ; preds = %.lr.ph.i13, %ForceZero.exit
  %.01528.i28.ph = phi ptr [ %29, %ForceZero.exit ], [ %36, %.lr.ph.i13 ]
  br label %.lr.ph29.i27

.lr.ph.i13:                                       ; preds = %ForceZero.exit, %.lr.ph.i13
  %.126.i14 = phi i32 [ %35, %.lr.ph.i13 ], [ %33, %ForceZero.exit ]
  %.01625.i15 = phi ptr [ %36, %.lr.ph.i13 ], [ %29, %ForceZero.exit ]
  %35 = add nsw i32 %.126.i14, -1
  %36 = getelementptr inbounds nuw i8, ptr %.01625.i15, i64 1
  store volatile i8 0, ptr %.01625.i15, align 1, !tbaa !43
  %.not.i16 = icmp eq i32 %35, 0
  br i1 %.not.i16, label %.lr.ph29.i27.preheader, label %.lr.ph.i13, !llvm.loop !44

.preheader.i19:                                   ; preds = %.lr.ph29.i27
  %.not2232.i22 = icmp eq i32 %38, 0
  br i1 %.not2232.i22, label %ForceZero.exit30, label %.lr.ph35.i23

.lr.ph29.i27:                                     ; preds = %.lr.ph29.i27.preheader, %.lr.ph29.i27
  %.01528.i28 = phi ptr [ %37, %.lr.ph29.i27 ], [ %.01528.i28.ph, %.lr.ph29.i27.preheader ]
  %.01827.i29 = phi i32 [ %38, %.lr.ph29.i27 ], [ %34, %.lr.ph29.i27.preheader ]
  %37 = getelementptr inbounds nuw i8, ptr %.01528.i28, i64 8
  store volatile i64 0, ptr %.01528.i28, align 8, !tbaa !27
  %38 = add nsw i32 %.01827.i29, -8
  %39 = icmp ugt i32 %38, 7
  br i1 %39, label %.lr.ph29.i27, label %.preheader.i19, !llvm.loop !45

.lr.ph35.i23:                                     ; preds = %.preheader.i19, %.lr.ph35.i23
  %.11734.i24 = phi ptr [ %41, %.lr.ph35.i23 ], [ %37, %.preheader.i19 ]
  %.11933.i25 = phi i32 [ %40, %.lr.ph35.i23 ], [ %38, %.preheader.i19 ]
  %40 = add i32 %.11933.i25, -1
  %41 = getelementptr inbounds nuw i8, ptr %.11734.i24, i64 1
  store volatile i8 0, ptr %.11734.i24, align 1, !tbaa !43
  %.not22.i26 = icmp eq i32 %40, 0
  br i1 %.not22.i26, label %ForceZero.exit30, label %.lr.ph35.i23, !llvm.loop !46

ForceZero.exit30:                                 ; preds = %.lr.ph35.i23, %.preheader.i19
  %42 = load i32, ptr %5, align 8, !tbaa !84
  %43 = icmp eq i32 %42, 3
  br i1 %43, label %44, label %45

44:                                               ; preds = %ForceZero.exit30
  call void @wolfSSL_Free(ptr noundef nonnull %5) #22
  br label %45

45:                                               ; preds = %14, %2, %44, %ForceZero.exit30
  ret void
}